; Function Attrs: mustprogress uwtable
define internal void @_ZNK5faiss12_GLOBAL__N_110IVFScannerINS_16HammingComputer4EE16scan_codes_rangeEmPKhPKlfRNS_16RangeQueryResultE(ptr nocapture noundef nonnull readonly align 8 dereferenceable(140) %0, i64 noundef %1, ptr nocapture noundef readonly %2, ptr nocapture noundef readonly %3, float noundef %4, ptr noundef nonnull align 8 dereferenceable(24) %5) unnamed_addr #2 align 2 {
  %.not18 = icmp eq i64 %1, 0
  br i1 %.not18, label %._crit_edge, label %.lr.ph

.lr.ph:                                           ; preds = %6
  %7 = getelementptr inbounds i8, ptr %0, i64 136
  %8 = getelementptr inbounds i8, ptr %0, i64 17
  %9 = getelementptr inbounds i8, ptr %0, i64 8
  %10 = getelementptr inbounds i8, ptr %0, i64 32
  br label %11

11:                                               ; preds = %.lr.ph, %30
  %.017 = phi ptr [ %2, %.lr.ph ], [ %32, %30 ]
  %.01315 = phi i64 [ 0, %.lr.ph ], [ %33, %30 ]
  %12 = load i32, ptr %.017, align 4
  %13 = load i32, ptr %7, align 8
  %14 = xor i32 %13, %12
  %15 = tail call noundef i32 @llvm.ctpop.i32(i32 %14), !range !25
  %16 = sitofp i32 %15 to float
  %17 = fcmp olt float %16, %4
  br i1 %17, label %18, label %30

18:                                               ; preds = %11
  %19 = load i8, ptr %8, align 1
  %20 = and i8 %19, 1
  %.not = icmp eq i8 %20, 0
  br i1 %.not, label %25, label %21

21:                                               ; preds = %18
  %22 = load i64, ptr %9, align 8
  %23 = shl i64 %22, 32
  %24 = or i64 %23, %.01315
  br label %28

25:                                               ; preds = %18
  %26 = getelementptr inbounds i64, ptr %3, i64 %.01315
  %27 = load i64, ptr %26, align 8
  br label %28

28:                                               ; preds = %25, %21
  %29 = phi i64 [ %24, %21 ], [ %27, %25 ]
  tail call void @_ZN5faiss16RangeQueryResult3addEfl(ptr noundef nonnull align 8 dereferenceable(24) %5, float noundef %16, i64 noundef %29)
  br label %30

30:                                               ; preds = %28, %11
  %31 = load i64, ptr %10, align 8
  %32 = getelementptr inbounds i8, ptr %.017, i64 %31
  %33 = add nuw i64 %.01315, 1
  %exitcond.not = icmp eq i64 %33, %1
  br i1 %exitcond.not, label %._crit_edge, label %11, !llvm.loop !28

._crit_edge:                                      ; preds = %30, %6
  ret void
}